; Function Attrs: null_pointer_is_valid sspstrong uwtable
define internal noundef zeroext i16 @be_fe_cell_load_info(ptr noundef %0, ptr noundef %1, ptr readnone captures(none) %2, i32 noundef %3, i32 %4, ptr readnone captures(none) %5, i32 %6) #1 {
  %8 = load i32, ptr @hf_fe_cell_load_info_cell_capacity_class, align 4
  %9 = tail call ptr @proto_tree_add_item(ptr noundef %1, i32 noundef %8, ptr noundef %0, i32 noundef %3, i32 noundef 1, i32 noundef 0)
  %10 = add i32 %3, 1
  %11 = load i32, ptr @hf_fe_cell_load_info_load_value, align 4
  %12 = tail call ptr @proto_tree_add_item(ptr noundef %1, i32 noundef %11, ptr noundef %0, i32 noundef %10, i32 noundef 1, i32 noundef 0)
  %13 = add i32 %3, 2
  %14 = load i32, ptr @hf_fe_cell_load_info_rt_load_value, align 4
  %15 = tail call ptr @proto_tree_add_item(ptr noundef %1, i32 noundef %14, ptr noundef %0, i32 noundef %13, i32 noundef 1, i32 noundef 0)
  %16 = add i32 %3, 3
  %17 = load i32, ptr @hf_fe_cell_load_info_nrt_load_information_value, align 4
  %18 = tail call ptr @proto_tree_add_item(ptr noundef %1, i32 noundef %17, ptr noundef %0, i32 noundef %16, i32 noundef 1, i32 noundef 0)
  ret i16 4
}